target datalayout = "e-m:e-p270:32:32-p271:32:32-p272:64:64-i64:64-i128:128-f80:128-n8:16:32:64-S128"
target triple = "x86_64-pc-linux-gnu"

%struct.gmx_mdoutf = type { ptr, ptr, ptr, ptr, i32, ptr, ptr, i8, i32, i8, i32, i32, ptr, i32, i32, ptr, ptr, ptr, ptr, ptr, i8, ptr }

; Function Attrs: mustprogress uwtable
define noundef i32 @_Z45mdoutf_get_tng_compressed_box_output_intervalP10gmx_mdoutf(ptr noundef %0) #0 {
  %2 = alloca i32, align 4
  %3 = alloca ptr, align 8
  store ptr %0, ptr %3, align 8
  %4 = load ptr, ptr %3, align 8
  %5 = getelementptr inbounds %struct.gmx_mdoutf, ptr %4, i32 0, i32 3
  %6 = load ptr, ptr %5, align 8
  %7 = icmp ne ptr %6, null
  br i1 %7, label %8, label %13

8:                                                ; preds = %1
  %9 = load ptr, ptr %3, align 8
  %10 = getelementptr inbounds %struct.gmx_mdoutf, ptr %9, i32 0, i32 3
  %11 = load ptr, ptr %10, align 8
  %12 = call noundef i32 @_Z31gmx_tng_get_box_output_intervalP18gmx_tng_trajectory(ptr noundef %11)
  store i32 %12, ptr %2, align 4
  br label %14

13:                                               ; preds = %1
  store i32 0, ptr %2, align 4
  br label %14

14:                                               ; preds = %13, %8
  %15 = load i32, ptr %2, align 4
  ret i32 %15
}