; Function Attrs: mustprogress uwtable
define noundef i32 @_Z45mdoutf_get_tng_compressed_box_output_intervalP10gmx_mdoutf(ptr nocapture noundef readonly %0) local_unnamed_addr #0 {
  %2 = getelementptr inbounds i8, ptr %0, i64 24
  %3 = load ptr, ptr %2, align 8
  %.not = icmp eq ptr %3, null
  br i1 %.not, label %6, label %4

4:                                                ; preds = %1
  %5 = tail call noundef i32 @_Z31gmx_tng_get_box_output_intervalP18gmx_tng_trajectory(ptr noundef nonnull %3)
  br label %6

6:                                                ; preds = %1, %4
  %.0 = phi i32 [ %5, %4 ], [ 0, %1 ]
  ret i32 %.0
}